; Function Attrs: nounwind uwtable
define internal fastcc noundef i32 @_archive_load(ptr noundef %0, ptr %.8.val, ptr noundef writeonly captures(none) initializes((0, 8)) %1) unnamed_addr #0 {
  %3 = tail call i32 @get_log_level() #10
  %4 = icmp sgt i32 %3, 5
  br i1 %4, label %5, label %9

5:                                                ; preds = %2
  %6 = load ptr, ptr %0, align 8
  %7 = getelementptr inbounds nuw i8, ptr %6, i64 60
  %8 = load i32, ptr %7, align 4
  tail call void (i32, ptr, ...) @log_var(i32 noundef 6, ptr noundef nonnull @.str.48, i32 noundef %8) #10
  br label %9

9:                                                ; preds = %5, %2
  %10 = load ptr, ptr %0, align 8
  %11 = getelementptr inbounds nuw i8, ptr %10, i64 8
  %12 = load i32, ptr %11, align 8
  %13 = icmp eq i32 %12, 0
  %14 = load i32, ptr getelementptr inbounds nuw (i8, ptr @slurm_conf, i64 1152), align 8
  %15 = icmp eq i32 %12, %14
  %or.cond.i = select i1 %13, i1 true, i1 %15
  br i1 %or.cond.i, label %_validate_super_user.exit.thread, label %_validate_super_user.exit

_validate_super_user.exit:                        ; preds = %9
  %16 = tail call i32 @assoc_mgr_get_admin_level(ptr noundef nonnull %0, i32 noundef %12) #10
  %17 = icmp ugt i32 %16, 2
  br i1 %17, label %_validate_super_user.exit.thread, label %18

18:                                               ; preds = %_validate_super_user.exit
  %19 = load ptr, ptr %0, align 8
  %20 = getelementptr inbounds nuw i8, ptr %19, i64 60
  %21 = load i32, ptr %20, align 4
  %22 = tail call i32 (ptr, ...) @error(ptr noundef nonnull @.str.16, i32 noundef %21, ptr noundef nonnull @.str.21) #10
  br label %27

_validate_super_user.exit.thread:                 ; preds = %9, %_validate_super_user.exit
  %23 = getelementptr inbounds nuw i8, ptr %0, i64 56
  %24 = load ptr, ptr %23, align 8
  %25 = tail call i32 @jobacct_storage_g_archive_load(ptr noundef %24, ptr noundef %.8.val) #10
  switch i32 %25, label %26 [
    i32 2, label %27
    i32 0, label %.fold.split
  ]

26:                                               ; preds = %_validate_super_user.exit.thread
  br label %27

.fold.split:                                      ; preds = %_validate_super_user.exit.thread
  br label %27

27:                                               ; preds = %_validate_super_user.exit.thread, %.fold.split, %26, %18
  %.013 = phi i32 [ %25, %26 ], [ 2002, %18 ], [ %25, %_validate_super_user.exit.thread ], [ %25, %.fold.split ]
  %.0 = phi ptr [ @.str.47, %26 ], [ @.str.21, %18 ], [ @.str.49, %_validate_super_user.exit.thread ], [ @.str.44, %.fold.split ]
  %28 = load ptr, ptr %0, align 8
  %29 = tail call ptr @slurm_persist_make_rc_msg(ptr noundef %28, i32 noundef %.013, ptr noundef nonnull %.0, i16 noundef zeroext 1460) #10
  store ptr %29, ptr %1, align 8
  ret i32 %.013
}